target datalayout = "e-m:e-p270:32:32-p271:32:32-p272:64:64-i64:64-i128:128-f80:128-n8:16:32:64-S128"
target triple = "x86_64-pc-linux-gnu"

%class.RegMask = type { %union.anon, i32, i32 }
%union.anon = type { [11 x i64] }
%class.Matcher = type { %class.PhaseTransform, %class.ResourceArea, %class.Node_List, %class.VectorSet, %class.VectorSet, %class.VectorSet, ptr, ptr, ptr, ptr, i32, i32, ptr, ptr, %class.Node_List, %class.Node_Array, ptr, i32, [16 x ptr], [16 x ptr], [16 x ptr], i8, ptr, ptr, ptr, ptr, %class.Node_List, i32, i32, i32, i32, ptr, ptr, %class.RegMask, %class.RegMask }
%class.PhaseTransform = type { ptr, %class.Phase }
%class.Phase = type { i32, ptr }
%class.ResourceArea = type { %class.Arena }
%class.Arena = type { i8, i8, i64, ptr, ptr, ptr, ptr }
%class.VectorSet = type { i32, ptr, i32, ptr }
%class.Node_Array = type { ptr, i32, ptr }
%class.Node_List = type <{ %class.Node_Array, i32, [4 x i8] }>
%class.Node_Stack = type { ptr, ptr, ptr, ptr }
%"struct.Node_Stack::INode" = type { ptr, i32 }

; Function Attrs: mustprogress nounwind uwtable
define linkonce_odr hidden void @_ZN10Node_Stack4pushEP4Nodej(ptr noundef nonnull align 8 dereferenceable(32) %0, ptr noundef %1, i32 noundef %2) #1 comdat align 2 {
  %4 = alloca ptr, align 8
  %5 = alloca ptr, align 8
  %6 = alloca i32, align 4
  %7 = alloca ptr, align 8
  store ptr %0, ptr %4, align 8
  store ptr %1, ptr %5, align 8
  store i32 %2, ptr %6, align 4
  %8 = load ptr, ptr %4, align 8
  %9 = getelementptr inbounds %class.Node_Stack, ptr %8, i32 0, i32 0
  %10 = load ptr, ptr %9, align 8
  %11 = getelementptr inbounds %"struct.Node_Stack::INode", ptr %10, i32 1
  store ptr %11, ptr %9, align 8
  %12 = getelementptr inbounds %class.Node_Stack, ptr %8, i32 0, i32 0
  %13 = load ptr, ptr %12, align 8
  %14 = getelementptr inbounds %class.Node_Stack, ptr %8, i32 0, i32 1
  %15 = load ptr, ptr %14, align 8
  %16 = icmp uge ptr %13, %15
  br i1 %16, label %17, label %18

17:                                               ; preds = %3
  call void @_ZN10Node_Stack4growEv(ptr noundef nonnull align 8 dereferenceable(32) %8)
  br label %18

18:                                               ; preds = %17, %3
  %19 = getelementptr inbounds %class.Node_Stack, ptr %8, i32 0, i32 0
  %20 = load ptr, ptr %19, align 8
  store ptr %20, ptr %7, align 8
  %21 = load ptr, ptr %5, align 8
  %22 = load ptr, ptr %7, align 8
  %23 = getelementptr inbounds %"struct.Node_Stack::INode", ptr %22, i32 0, i32 0
  store ptr %21, ptr %23, align 8
  %24 = load i32, ptr %6, align 4
  %25 = load ptr, ptr %7, align 8
  %26 = getelementptr inbounds %"struct.Node_Stack::INode", ptr %25, i32 0, i32 1
  store i32 %24, ptr %26, align 8
  ret void
}

; Function Attrs: mustprogress nounwind uwtable
define linkonce_odr hidden void @_ZN7Matcher6MStack4pushEP4NodeNS_10Node_StateE(ptr noundef nonnull align 8 dereferenceable(32) %0, ptr noundef %1, i32 noundef %2) #1 comdat align 2 {
  %4 = alloca ptr, align 8
  %5 = alloca ptr, align 8
  %6 = alloca i32, align 4
  store ptr %0, ptr %4, align 8
  store ptr %1, ptr %5, align 8
  store i32 %2, ptr %6, align 4
  %7 = load ptr, ptr %4, align 8
  %8 = load ptr, ptr %5, align 8
  %9 = load i32, ptr %6, align 4
  call void @_ZN10Node_Stack4pushEP4Nodej(ptr noundef nonnull align 8 dereferenceable(32) %7, ptr noundef %8, i32 noundef %9)
  ret void
}

; Function Attrs: mustprogress nounwind uwtable
define hidden noundef zeroext i1 @_ZN7Matcher10clone_nodeEP4NodeS1_RNS_6MStackE(ptr noundef nonnull align 8 dereferenceable(1008) %0, ptr noundef %1, ptr noundef %2, ptr noundef nonnull align 8 dereferenceable(32) %3) #1 align 2 {
  %5 = alloca i1, align 1
  %6 = alloca ptr, align 8
  %7 = alloca ptr, align 8
  %8 = alloca ptr, align 8
  %9 = alloca ptr, align 8
  store ptr %0, ptr %6, align 8
  store ptr %1, ptr %7, align 8
  store ptr %2, ptr %8, align 8
  store ptr %3, ptr %9, align 8
  %10 = load ptr, ptr %6, align 8
  %11 = getelementptr inbounds %class.Matcher, ptr %10, i32 0, i32 12
  %12 = load ptr, ptr %11, align 8
  %13 = load ptr, ptr %8, align 8
  %14 = load ptr, ptr %13, align 8
  %15 = getelementptr inbounds ptr, ptr %14, i64 0
  %16 = load ptr, ptr %15, align 8
  %17 = call noundef i32 %16(ptr noundef nonnull align 8 dereferenceable(52) %13)
  %18 = sext i32 %17 to i64
  %19 = getelementptr inbounds i8, ptr %12, i64 %18
  %20 = load i8, ptr %19, align 1
  %21 = icmp ne i8 %20, 0
  br i1 %21, label %22, label %25

22:                                               ; preds = %4
  %23 = load ptr, ptr %9, align 8
  %24 = load ptr, ptr %8, align 8
  call void @_ZN7Matcher6MStack4pushEP4NodeNS_10Node_StateE(ptr noundef nonnull align 8 dereferenceable(32) %23, ptr noundef %24, i32 noundef 1)
  store i1 true, ptr %5, align 1
  br label %30

25:                                               ; preds = %4
  %26 = load ptr, ptr %7, align 8
  %27 = load ptr, ptr %8, align 8
  %28 = load ptr, ptr %9, align 8
  %29 = call noundef zeroext i1 @_ZN7Matcher13pd_clone_nodeEP4NodeS1_RNS_6MStackE(ptr noundef nonnull align 8 dereferenceable(1008) %10, ptr noundef %26, ptr noundef %27, ptr noundef nonnull align 8 dereferenceable(32) %28)
  store i1 %29, ptr %5, align 1
  br label %30

30:                                               ; preds = %25, %22
  %31 = load i1, ptr %5, align 1
  ret i1 %31
}