; Function Attrs: mustprogress nounwind uwtable
define hidden noundef zeroext i1 @_ZN7Matcher10clone_nodeEP4NodeS1_RNS_6MStackE(ptr noundef nonnull align 8 dereferenceable(1008) %0, ptr noundef %1, ptr noundef %2, ptr noundef nonnull align 8 dereferenceable(32) %3) local_unnamed_addr #0 align 2 {
  %5 = getelementptr inbounds i8, ptr %0, i64 240
  %6 = load ptr, ptr %5, align 8
  %7 = load ptr, ptr %2, align 8
  %8 = load ptr, ptr %7, align 8
  %9 = tail call noundef i32 %8(ptr noundef nonnull align 8 dereferenceable(52) %2) #15
  %10 = sext i32 %9 to i64
  %11 = getelementptr inbounds i8, ptr %6, i64 %10
  %12 = load i8, ptr %11, align 1
  %.not = icmp eq i8 %12, 0
  br i1 %.not, label %21, label %13

13:                                               ; preds = %4
  %14 = load ptr, ptr %3, align 8
  %15 = getelementptr inbounds i8, ptr %14, i64 16
  store ptr %15, ptr %3, align 8
  %16 = getelementptr inbounds i8, ptr %3, i64 8
  %17 = load ptr, ptr %16, align 8
  %.not.i.i = icmp ult ptr %15, %17
  br i1 %.not.i.i, label %_ZN7Matcher6MStack4pushEP4NodeNS_10Node_StateE.exit, label %18

18:                                               ; preds = %13
  tail call void @_ZN10Node_Stack4growEv(ptr noundef nonnull align 8 dereferenceable(32) %3) #15
  %.pre.i.i = load ptr, ptr %3, align 8
  br label %_ZN7Matcher6MStack4pushEP4NodeNS_10Node_StateE.exit

_ZN7Matcher6MStack4pushEP4NodeNS_10Node_StateE.exit: ; preds = %13, %18
  %19 = phi ptr [ %.pre.i.i, %18 ], [ %15, %13 ]
  store ptr %2, ptr %19, align 8
  %20 = getelementptr inbounds i8, ptr %19, i64 8
  store i32 1, ptr %20, align 8
  br label %23

21:                                               ; preds = %4
  %22 = tail call noundef zeroext i1 @_ZN7Matcher13pd_clone_nodeEP4NodeS1_RNS_6MStackE(ptr noundef nonnull align 8 dereferenceable(1008) %0, ptr noundef %1, ptr noundef nonnull %2, ptr noundef nonnull align 8 dereferenceable(32) %3) #15
  br label %23

23:                                               ; preds = %21, %_ZN7Matcher6MStack4pushEP4NodeNS_10Node_StateE.exit
  %.0 = phi i1 [ true, %_ZN7Matcher6MStack4pushEP4NodeNS_10Node_StateE.exit ], [ %22, %21 ]
  ret i1 %.0
}